target datalayout = "e-m:e-p270:32:32-p271:32:32-p272:64:64-i64:64-i128:128-f80:128-n8:16:32:64-S128"
target triple = "x86_64-pc-linux-gnu"

%struct.pmix_class_t = type { ptr, ptr, ptr, ptr, i32, i32, ptr, ptr, i64 }
%union.pthread_mutex_t = type { %struct.__pthread_mutex_s }
%struct.__pthread_mutex_s = type { i32, i32, i32, i32, i32, i16, i16, %struct.__pthread_internal_list }
%struct.__pthread_internal_list = type { ptr, ptr }
%struct.pmix_tma = type { ptr, ptr, ptr, ptr, ptr, ptr, ptr, ptr }
%struct.pmix_object_t = type { %union.pthread_mutex_t, ptr, i32, %struct.pmix_tma }

@.str.50 = private unnamed_addr constant [21 x i8] c"pthread_mutex_lock()\00", align 1

; Function Attrs: inlinehint nounwind uwtable
define internal void @pmix_tma_free(ptr noundef %0, ptr noundef %1) #7 {
  %3 = alloca ptr, align 8
  %4 = alloca ptr, align 8
  store ptr %0, ptr %3, align 8, !tbaa !111
  store ptr %1, ptr %4, align 8, !tbaa !21
  %5 = load ptr, ptr %3, align 8, !tbaa !111
  %6 = icmp ne ptr null, %5
  br i1 %6, label %7, label %13

7:                                                ; preds = %2
  %8 = load ptr, ptr %3, align 8, !tbaa !111
  %9 = getelementptr inbounds nuw %struct.pmix_tma, ptr %8, i32 0, i32 5
  %10 = load ptr, ptr %9, align 8, !tbaa !129
  %11 = load ptr, ptr %3, align 8, !tbaa !111
  %12 = load ptr, ptr %4, align 8, !tbaa !21
  call void %10(ptr noundef %11, ptr noundef %12)
  br label %15

13:                                               ; preds = %2
  %14 = load ptr, ptr %4, align 8, !tbaa !21
  call void @free(ptr noundef %14) #12
  br label %15

15:                                               ; preds = %13, %7
  ret void
}

; Function Attrs: inlinehint nounwind uwtable
define internal void @pmix_obj_run_destructors(ptr noundef %0) #7 {
  %2 = alloca ptr, align 8
  %3 = alloca ptr, align 8
  store ptr %0, ptr %2, align 8, !tbaa !106
  call void @llvm.lifetime.start.p0(i64 8, ptr %3) #12
  %4 = load ptr, ptr %2, align 8, !tbaa !106
  %5 = getelementptr inbounds nuw %struct.pmix_object_t, ptr %4, i32 0, i32 1
  %6 = load ptr, ptr %5, align 8, !tbaa !62
  %7 = getelementptr inbounds nuw %struct.pmix_class_t, ptr %6, i32 0, i32 7
  %8 = load ptr, ptr %7, align 8, !tbaa !127
  store ptr %8, ptr %3, align 8, !tbaa !21
  br label %9

9:                                                ; preds = %13, %1
  %10 = load ptr, ptr %3, align 8, !tbaa !21
  %11 = load ptr, ptr %10, align 8, !tbaa !21
  %12 = icmp ne ptr null, %11
  br i1 %12, label %13, label %19

13:                                               ; preds = %9
  %14 = load ptr, ptr %3, align 8, !tbaa !21
  %15 = load ptr, ptr %14, align 8, !tbaa !21
  %16 = load ptr, ptr %2, align 8, !tbaa !106
  call void %15(ptr noundef %16)
  %17 = load ptr, ptr %3, align 8, !tbaa !21
  %18 = getelementptr inbounds nuw ptr, ptr %17, i32 1
  store ptr %18, ptr %3, align 8, !tbaa !21
  br label %9, !llvm.loop !128

19:                                               ; preds = %9
  call void @llvm.lifetime.end.p0(i64 8, ptr %3) #12
  ret void
}

; Function Attrs: alwaysinline nounwind uwtable
define internal i32 @pmix_obj_update(ptr noundef %0, i32 noundef %1) #8 {
  %3 = alloca ptr, align 8
  %4 = alloca i32, align 4
  %5 = alloca i32, align 4
  store ptr %0, ptr %3, align 8, !tbaa !106
  store i32 %1, ptr %4, align 4, !tbaa !17
  call void @llvm.lifetime.start.p0(i64 4, ptr %5) #12
  %6 = load ptr, ptr %3, align 8, !tbaa !106
  %7 = getelementptr inbounds nuw %struct.pmix_object_t, ptr %6, i32 0, i32 0
  %8 = call i32 @pthread_mutex_lock(ptr noundef %7) #12
  store i32 %8, ptr %5, align 4, !tbaa !17
  %9 = load i32, ptr %5, align 4, !tbaa !17
  %10 = icmp eq i32 %9, 35
  br i1 %10, label %11, label %14

11:                                               ; preds = %2
  %12 = load i32, ptr %5, align 4, !tbaa !17
  %13 = call ptr @__errno_location() #15
  store i32 %12, ptr %13, align 4, !tbaa !17
  call void @perror(ptr noundef @.str.50)
  call void @abort() #16
  unreachable

14:                                               ; preds = %2
  %15 = load i32, ptr %4, align 4, !tbaa !17
  %16 = load ptr, ptr %3, align 8, !tbaa !106
  %17 = getelementptr inbounds nuw %struct.pmix_object_t, ptr %16, i32 0, i32 2
  %18 = load i32, ptr %17, align 8, !tbaa !63
  %19 = add nsw i32 %18, %15
  store i32 %19, ptr %17, align 8, !tbaa !63
  store i32 %19, ptr %5, align 4, !tbaa !17
  %20 = load ptr, ptr %3, align 8, !tbaa !106
  %21 = getelementptr inbounds nuw %struct.pmix_object_t, ptr %20, i32 0, i32 0
  %22 = call i32 @pthread_mutex_unlock(ptr noundef %21) #12
  %23 = load i32, ptr %5, align 4, !tbaa !17
  call void @llvm.lifetime.end.p0(i64 4, ptr %5) #12
  ret i32 %23
}

; Function Attrs: nounwind uwtable
define internal void @_notification_eviction_cbfunc(ptr noundef %0, i32 noundef %1, ptr noundef %2) #0 {
  %4 = alloca ptr, align 8
  %5 = alloca i32, align 4
  %6 = alloca ptr, align 8
  %7 = alloca ptr, align 8
  %8 = alloca ptr, align 8
  store ptr %0, ptr %4, align 8, !tbaa !123
  store i32 %1, ptr %5, align 4, !tbaa !17
  store ptr %2, ptr %6, align 8, !tbaa !21
  call void @llvm.lifetime.start.p0(i64 8, ptr %7) #12
  %9 = load ptr, ptr %6, align 8, !tbaa !21
  store ptr %9, ptr %7, align 8, !tbaa !21
  br label %10

10:                                               ; preds = %3
  call void @llvm.lifetime.start.p0(i64 8, ptr %8) #12
  %11 = load ptr, ptr %7, align 8, !tbaa !21
  store ptr %11, ptr %8, align 8, !tbaa !106
  %12 = load ptr, ptr %8, align 8, !tbaa !106
  %13 = call i32 @pmix_obj_update(ptr noundef %12, i32 noundef -1)
  %14 = icmp eq i32 0, %13
  br i1 %14, label %15, label %29

15:                                               ; preds = %10
  %16 = load ptr, ptr %8, align 8, !tbaa !106
  call void @pmix_obj_run_destructors(ptr noundef %16)
  %17 = load ptr, ptr %8, align 8, !tbaa !106
  %18 = getelementptr inbounds nuw %struct.pmix_object_t, ptr %17, i32 0, i32 3
  %19 = getelementptr inbounds nuw %struct.pmix_tma, ptr %18, i32 0, i32 5
  %20 = load ptr, ptr %19, align 8, !tbaa !108
  %21 = icmp ne ptr null, %20
  br i1 %21, label %22, label %26

22:                                               ; preds = %15
  %23 = load ptr, ptr %8, align 8, !tbaa !106
  %24 = getelementptr inbounds nuw %struct.pmix_object_t, ptr %23, i32 0, i32 3
  %25 = load ptr, ptr %7, align 8, !tbaa !21
  call void @pmix_tma_free(ptr noundef %24, ptr noundef %25)
  br label %28

26:                                               ; preds = %15
  %27 = load ptr, ptr %7, align 8, !tbaa !21
  call void @free(ptr noundef %27) #12
  br label %28

28:                                               ; preds = %26, %22
  store ptr null, ptr %7, align 8, !tbaa !21
  br label %29

29:                                               ; preds = %28, %10
  call void @llvm.lifetime.end.p0(i64 8, ptr %8) #12
  br label %30

30:                                               ; preds = %29
  br label %31

31:                                               ; preds = %30
  call void @llvm.lifetime.end.p0(i64 8, ptr %7) #12
  ret void
}