; Function Attrs: nounwind uwtable
define internal void @_notification_eviction_cbfunc(ptr readnone captures(none) %0, i32 %1, ptr noundef %2) #0 {
  %4 = tail call i32 @pthread_mutex_lock(ptr noundef %2) #16
  %5 = icmp eq i32 %4, 35
  br i1 %5, label %6, label %pmix_obj_update.exit

6:                                                ; preds = %3
  %7 = tail call ptr @__errno_location() #21
  store i32 35, ptr %7, align 4, !tbaa !53
  tail call void @perror(ptr noundef nonnull @.str.50) #19
  tail call void @abort() #22
  unreachable

pmix_obj_update.exit:                             ; preds = %3
  %8 = getelementptr inbounds nuw i8, ptr %2, i64 48
  %9 = load i32, ptr %8, align 8, !tbaa !57
  %10 = add nsw i32 %9, -1
  store i32 %10, ptr %8, align 8, !tbaa !57
  %11 = tail call i32 @pthread_mutex_unlock(ptr noundef %2) #16
  %12 = icmp eq i32 %10, 0
  br i1 %12, label %13, label %27

13:                                               ; preds = %pmix_obj_update.exit
  %14 = getelementptr inbounds nuw i8, ptr %2, i64 40
  %15 = load ptr, ptr %14, align 8, !tbaa !56
  %16 = getelementptr inbounds nuw i8, ptr %15, i64 48
  %17 = load ptr, ptr %16, align 8, !tbaa !104
  %18 = load ptr, ptr %17, align 8, !tbaa !59
  %.not6.i = icmp eq ptr %18, null
  br i1 %.not6.i, label %pmix_obj_run_destructors.exit, label %.lr.ph.i

.lr.ph.i:                                         ; preds = %13, %.lr.ph.i
  %19 = phi ptr [ %21, %.lr.ph.i ], [ %18, %13 ]
  %.07.i = phi ptr [ %20, %.lr.ph.i ], [ %17, %13 ]
  tail call void %19(ptr noundef %2) #16
  %20 = getelementptr inbounds nuw i8, ptr %.07.i, i64 8
  %21 = load ptr, ptr %20, align 8, !tbaa !59
  %.not.i = icmp eq ptr %21, null
  br i1 %.not.i, label %pmix_obj_run_destructors.exit, label %.lr.ph.i, !llvm.loop !105

pmix_obj_run_destructors.exit:                    ; preds = %.lr.ph.i, %13
  %22 = getelementptr inbounds nuw i8, ptr %2, i64 96
  %23 = load ptr, ptr %22, align 8, !tbaa !106
  %.not = icmp eq ptr %23, null
  br i1 %.not, label %26, label %24

24:                                               ; preds = %pmix_obj_run_destructors.exit
  %25 = getelementptr inbounds nuw i8, ptr %2, i64 56
  tail call void %23(ptr noundef nonnull %25, ptr noundef nonnull %2) #16
  br label %27

26:                                               ; preds = %pmix_obj_run_destructors.exit
  tail call void @free(ptr noundef nonnull %2) #16
  br label %27

27:                                               ; preds = %24, %26, %pmix_obj_update.exit
  ret void
}